target datalayout = "e-m:e-p270:32:32-p271:32:32-p272:64:64-i64:64-i128:128-f80:128-n8:16:32:64-S128"
target triple = "x86_64-pc-linux-gnu"

%struct.DdManager = type { %struct.DdNode, ptr, ptr, ptr, ptr, ptr, ptr, ptr, i32, i32, double, double, double, i32, i32, i32, i32, i32, i32, ptr, ptr, %struct.DdSubtable, i32, i32, i32, i32, i32, i32, i32, double, i32, i32, i32, ptr, i64, double, i32, ptr, ptr, ptr, ptr, ptr, ptr, ptr, i32, ptr, ptr, ptr, ptr, ptr, ptr, i32, i32, i32, double, i32, i32, i32, i32, double, double, i32, i32, i32, i32, i32, i32, i32, i32, i32, ptr, ptr, i32, i32, i32, i32, i32, i32, ptr, ptr, ptr, ptr, ptr, ptr, ptr, ptr, i32, i64, i64, i64, i32, i64, i64, double, double, double, double, double, double, i32, ptr, ptr, i64 }
%struct.DdNode = type { i32, i32, ptr, %union.anon, i64 }
%union.anon = type { %struct.DdChildren }
%struct.DdChildren = type { ptr, ptr }
%struct.DdSubtable = type { ptr, i32, i32, i32, i32, i32, i32, i32, i32, i32, i32, i32 }

; Function Attrs: nounwind uwtable
define ptr @Extra_bddComputeSum(ptr noundef %0, ptr noundef %1, i32 noundef %2) #0 {
  %4 = alloca ptr, align 8
  %5 = alloca ptr, align 8
  %6 = alloca i32, align 4
  %7 = alloca ptr, align 8
  %8 = alloca ptr, align 8
  %9 = alloca i32, align 4
  store ptr %0, ptr %4, align 8, !tbaa !10
  store ptr %1, ptr %5, align 8, !tbaa !73
  store i32 %2, ptr %6, align 4, !tbaa !8
  call void @llvm.lifetime.start.p0(i64 8, ptr %7) #8
  call void @llvm.lifetime.start.p0(i64 8, ptr %8) #8
  call void @llvm.lifetime.start.p0(i64 4, ptr %9) #8
  %10 = load ptr, ptr %4, align 8, !tbaa !10
  %11 = getelementptr inbounds nuw %struct.DdManager, ptr %10, i32 0, i32 1
  %12 = load ptr, ptr %11, align 8, !tbaa !74
  %13 = ptrtoint ptr %12 to i64
  %14 = xor i64 %13, 1
  %15 = inttoptr i64 %14 to ptr
  store ptr %15, ptr %7, align 8, !tbaa !72
  %16 = load ptr, ptr %7, align 8, !tbaa !72
  call void @Cudd_Ref(ptr noundef %16)
  store i32 0, ptr %9, align 4, !tbaa !8
  br label %17

17:                                               ; preds = %33, %3
  %18 = load i32, ptr %9, align 4, !tbaa !8
  %19 = load i32, ptr %6, align 4, !tbaa !8
  %20 = icmp slt i32 %18, %19
  br i1 %20, label %21, label %36

21:                                               ; preds = %17
  %22 = load ptr, ptr %4, align 8, !tbaa !10
  %23 = load ptr, ptr %7, align 8, !tbaa !72
  store ptr %23, ptr %8, align 8, !tbaa !72
  %24 = load ptr, ptr %5, align 8, !tbaa !73
  %25 = load i32, ptr %9, align 4, !tbaa !8
  %26 = sext i32 %25 to i64
  %27 = getelementptr inbounds ptr, ptr %24, i64 %26
  %28 = load ptr, ptr %27, align 8, !tbaa !72
  %29 = call ptr @Cudd_bddOr(ptr noundef %22, ptr noundef %23, ptr noundef %28)
  store ptr %29, ptr %7, align 8, !tbaa !72
  %30 = load ptr, ptr %7, align 8, !tbaa !72
  call void @Cudd_Ref(ptr noundef %30)
  %31 = load ptr, ptr %4, align 8, !tbaa !10
  %32 = load ptr, ptr %8, align 8, !tbaa !72
  call void @Cudd_RecursiveDeref(ptr noundef %31, ptr noundef %32)
  br label %33

33:                                               ; preds = %21
  %34 = load i32, ptr %9, align 4, !tbaa !8
  %35 = add nsw i32 %34, 1
  store i32 %35, ptr %9, align 4, !tbaa !8
  br label %17, !llvm.loop !75

36:                                               ; preds = %17
  %37 = load ptr, ptr %7, align 8, !tbaa !72
  call void @Cudd_Deref(ptr noundef %37)
  %38 = load ptr, ptr %7, align 8, !tbaa !72
  call void @llvm.lifetime.end.p0(i64 4, ptr %9) #8
  call void @llvm.lifetime.end.p0(i64 8, ptr %8) #8
  call void @llvm.lifetime.end.p0(i64 8, ptr %7) #8
  ret ptr %38
}

; Function Attrs: inlinehint nounwind uwtable
define internal i32 @Abc_MaxInt(i32 noundef %0, i32 noundef %1) #4 {
  %3 = alloca i32, align 4
  %4 = alloca i32, align 4
  store i32 %0, ptr %3, align 4, !tbaa !8
  store i32 %1, ptr %4, align 4, !tbaa !8
  %5 = load i32, ptr %3, align 4, !tbaa !8
  %6 = load i32, ptr %4, align 4, !tbaa !8
  %7 = icmp sgt i32 %5, %6
  br i1 %7, label %8, label %10

8:                                                ; preds = %2
  %9 = load i32, ptr %3, align 4, !tbaa !8
  br label %12

10:                                               ; preds = %2
  %11 = load i32, ptr %4, align 4, !tbaa !8
  br label %12

12:                                               ; preds = %10, %8
  %13 = phi i32 [ %9, %8 ], [ %11, %10 ]
  ret i32 %13
}

; Function Attrs: nounwind uwtable
define ptr @Abc_NtkSparsifyInternalOne(ptr noundef %0, ptr noundef %1, i32 noundef %2, i32 noundef %3) #0 {
  %5 = alloca ptr, align 8
  %6 = alloca ptr, align 8
  %7 = alloca i32, align 4
  %8 = alloca i32, align 4
  %9 = alloca i32, align 4
  %10 = alloca i32, align 4
  %11 = alloca i32, align 4
  %12 = alloca ptr, align 8
  %13 = alloca ptr, align 8
  store ptr %0, ptr %5, align 8, !tbaa !10
  store ptr %1, ptr %6, align 8, !tbaa !72
  store i32 %2, ptr %7, align 4, !tbaa !8
  store i32 %3, ptr %8, align 4, !tbaa !8
  call void @llvm.lifetime.start.p0(i64 4, ptr %9) #8
  %14 = load ptr, ptr %5, align 8, !tbaa !10
  %15 = load ptr, ptr %6, align 8, !tbaa !72
  %16 = load i32, ptr %7, align 4, !tbaa !8
  %17 = call double @Cudd_CountMinterm(ptr noundef %14, ptr noundef %15, i32 noundef %16)
  %18 = fptosi double %17 to i32
  store i32 %18, ptr %9, align 4, !tbaa !8
  call void @llvm.lifetime.start.p0(i64 4, ptr %10) #8
  call void @llvm.lifetime.start.p0(i64 4, ptr %11) #8
  %19 = load i32, ptr %8, align 4, !tbaa !8
  %20 = sitofp i32 %19 to double
  %21 = fmul double 1.000000e-02, %20
  %22 = load i32, ptr %9, align 4, !tbaa !8
  %23 = sitofp i32 %22 to double
  %24 = fmul double %21, %23
  %25 = fptosi double %24 to i32
  %26 = call i32 @Abc_MaxInt(i32 noundef 1, i32 noundef %25)
  store i32 %26, ptr %11, align 4, !tbaa !8
  call void @llvm.lifetime.start.p0(i64 8, ptr %12) #8
  %27 = load ptr, ptr %5, align 8, !tbaa !10
  %28 = load ptr, ptr %6, align 8, !tbaa !72
  %29 = load ptr, ptr %5, align 8, !tbaa !10
  %30 = getelementptr inbounds nuw %struct.DdManager, ptr %29, i32 0, i32 41
  %31 = load ptr, ptr %30, align 8, !tbaa !71
  %32 = load i32, ptr %7, align 4, !tbaa !8
  %33 = load i32, ptr %11, align 4, !tbaa !8
  %34 = call ptr @Cudd_bddPickArbitraryMinterms(ptr noundef %27, ptr noundef %28, ptr noundef %31, i32 noundef %32, i32 noundef %33)
  store ptr %34, ptr %12, align 8, !tbaa !73
  call void @llvm.lifetime.start.p0(i64 8, ptr %13) #8
  store i32 0, ptr %10, align 4, !tbaa !8
  br label %35

35:                                               ; preds = %45, %4
  %36 = load i32, ptr %10, align 4, !tbaa !8
  %37 = load i32, ptr %11, align 4, !tbaa !8
  %38 = icmp slt i32 %36, %37
  br i1 %38, label %39, label %48

39:                                               ; preds = %35
  %40 = load ptr, ptr %12, align 8, !tbaa !73
  %41 = load i32, ptr %10, align 4, !tbaa !8
  %42 = sext i32 %41 to i64
  %43 = getelementptr inbounds ptr, ptr %40, i64 %42
  %44 = load ptr, ptr %43, align 8, !tbaa !72
  call void @Cudd_Ref(ptr noundef %44)
  br label %45

45:                                               ; preds = %39
  %46 = load i32, ptr %10, align 4, !tbaa !8
  %47 = add nsw i32 %46, 1
  store i32 %47, ptr %10, align 4, !tbaa !8
  br label %35, !llvm.loop !76

48:                                               ; preds = %35
  %49 = load ptr, ptr %5, align 8, !tbaa !10
  %50 = load ptr, ptr %12, align 8, !tbaa !73
  %51 = load i32, ptr %11, align 4, !tbaa !8
  %52 = call ptr @Extra_bddComputeSum(ptr noundef %49, ptr noundef %50, i32 noundef %51)
  store ptr %52, ptr %13, align 8, !tbaa !72
  %53 = load ptr, ptr %13, align 8, !tbaa !72
  call void @Cudd_Ref(ptr noundef %53)
  store i32 0, ptr %10, align 4, !tbaa !8
  br label %54

54:                                               ; preds = %65, %48
  %55 = load i32, ptr %10, align 4, !tbaa !8
  %56 = load i32, ptr %11, align 4, !tbaa !8
  %57 = icmp slt i32 %55, %56
  br i1 %57, label %58, label %68

58:                                               ; preds = %54
  %59 = load ptr, ptr %5, align 8, !tbaa !10
  %60 = load ptr, ptr %12, align 8, !tbaa !73
  %61 = load i32, ptr %10, align 4, !tbaa !8
  %62 = sext i32 %61 to i64
  %63 = getelementptr inbounds ptr, ptr %60, i64 %62
  %64 = load ptr, ptr %63, align 8, !tbaa !72
  call void @Cudd_RecursiveDeref(ptr noundef %59, ptr noundef %64)
  br label %65

65:                                               ; preds = %58
  %66 = load i32, ptr %10, align 4, !tbaa !8
  %67 = add nsw i32 %66, 1
  store i32 %67, ptr %10, align 4, !tbaa !8
  br label %54, !llvm.loop !77

68:                                               ; preds = %54
  %69 = load ptr, ptr %13, align 8, !tbaa !72
  call void @Cudd_Deref(ptr noundef %69)
  %70 = load ptr, ptr %12, align 8, !tbaa !73
  %71 = icmp ne ptr %70, null
  br i1 %71, label %72, label %74

72:                                               ; preds = %68
  %73 = load ptr, ptr %12, align 8, !tbaa !73
  call void @free(ptr noundef %73) #8
  store ptr null, ptr %12, align 8, !tbaa !73
  br label %75

74:                                               ; preds = %68
  br label %75

75:                                               ; preds = %74, %72
  %76 = load ptr, ptr %13, align 8, !tbaa !72
  call void @llvm.lifetime.end.p0(i64 8, ptr %13) #8
  call void @llvm.lifetime.end.p0(i64 8, ptr %12) #8
  call void @llvm.lifetime.end.p0(i64 4, ptr %11) #8
  call void @llvm.lifetime.end.p0(i64 4, ptr %10) #8
  call void @llvm.lifetime.end.p0(i64 4, ptr %9) #8
  ret ptr %76
}