; Function Attrs: nounwind uwtable
define noundef ptr @Abc_NtkSparsifyInternalOne(ptr noundef %0, ptr noundef %1, i32 noundef %2, i32 noundef %3) local_unnamed_addr #0 {
  %5 = tail call double @Cudd_CountMinterm(ptr noundef %0, ptr noundef %1, i32 noundef %2) #10
  %6 = fptosi double %5 to i32
  %7 = sitofp i32 %3 to double
  %8 = fmul double %7, 1.000000e-02
  %9 = sitofp i32 %6 to double
  %10 = fmul double %8, %9
  %11 = fptosi double %10 to i32
  %12 = tail call i32 @llvm.smax.i32(i32 %11, i32 1)
  %13 = getelementptr inbounds nuw i8, ptr %0, i64 344
  %14 = load ptr, ptr %13, align 8, !tbaa !72
  %15 = tail call ptr @Cudd_bddPickArbitraryMinterms(ptr noundef %0, ptr noundef %1, ptr noundef %14, i32 noundef %2, i32 noundef %12) #10
  %wide.trip.count = zext nneg i32 %12 to i64
  br label %16

16:                                               ; preds = %4, %16
  %indvars.iv = phi i64 [ 0, %4 ], [ %indvars.iv.next, %16 ]
  %17 = getelementptr inbounds nuw ptr, ptr %15, i64 %indvars.iv
  %18 = load ptr, ptr %17, align 8, !tbaa !73
  tail call void @Cudd_Ref(ptr noundef %18) #10
  %indvars.iv.next = add nuw nsw i64 %indvars.iv, 1
  %exitcond.not = icmp eq i64 %indvars.iv.next, %wide.trip.count
  br i1 %exitcond.not, label %19, label %16, !llvm.loop !79

19:                                               ; preds = %16
  %20 = getelementptr inbounds nuw i8, ptr %0, i64 40
  %21 = load ptr, ptr %20, align 8, !tbaa !77
  %22 = ptrtoint ptr %21 to i64
  %23 = xor i64 %22, 1
  %24 = inttoptr i64 %23 to ptr
  tail call void @Cudd_Ref(ptr noundef %24) #10
  br label %.lr.ph.i

.lr.ph.i:                                         ; preds = %.lr.ph.i, %19
  %indvars.iv.i = phi i64 [ 0, %19 ], [ %indvars.iv.next.i, %.lr.ph.i ]
  %.01314.i = phi ptr [ %24, %19 ], [ %27, %.lr.ph.i ]
  %25 = getelementptr inbounds nuw ptr, ptr %15, i64 %indvars.iv.i
  %26 = load ptr, ptr %25, align 8, !tbaa !73
  %27 = tail call ptr @Cudd_bddOr(ptr noundef %0, ptr noundef %.01314.i, ptr noundef %26) #10
  tail call void @Cudd_Ref(ptr noundef %27) #10
  tail call void @Cudd_RecursiveDeref(ptr noundef %0, ptr noundef %.01314.i) #10
  %indvars.iv.next.i = add nuw nsw i64 %indvars.iv.i, 1
  %exitcond.not.i = icmp eq i64 %indvars.iv.next.i, %wide.trip.count
  br i1 %exitcond.not.i, label %Extra_bddComputeSum.exit, label %.lr.ph.i, !llvm.loop !78

Extra_bddComputeSum.exit:                         ; preds = %.lr.ph.i
  tail call void @Cudd_Deref(ptr noundef %27) #10
  tail call void @Cudd_Ref(ptr noundef %27) #10
  br label %28

28:                                               ; preds = %Extra_bddComputeSum.exit, %28
  %indvars.iv33 = phi i64 [ 0, %Extra_bddComputeSum.exit ], [ %indvars.iv.next34, %28 ]
  %29 = getelementptr inbounds nuw ptr, ptr %15, i64 %indvars.iv33
  %30 = load ptr, ptr %29, align 8, !tbaa !73
  tail call void @Cudd_RecursiveDeref(ptr noundef %0, ptr noundef %30) #10
  %indvars.iv.next34 = add nuw nsw i64 %indvars.iv33, 1
  %exitcond37.not = icmp eq i64 %indvars.iv.next34, %wide.trip.count
  br i1 %exitcond37.not, label %31, label %28, !llvm.loop !80

31:                                               ; preds = %28
  tail call void @Cudd_Deref(ptr noundef %27) #10
  tail call void @free(ptr noundef nonnull %15) #10
  ret ptr %27
}